target datalayout = "e-m:e-p270:32:32-p271:32:32-p272:64:64-i64:64-i128:128-f80:128-n8:16:32:64-S128"
target triple = "x86_64-pc-linux-gnu"

%"class.std::__cxx11::basic_string" = type { %"struct.std::__cxx11::basic_string<char>::_Alloc_hider", i64, %union.anon }
%"struct.std::__cxx11::basic_string<char>::_Alloc_hider" = type { ptr }
%union.anon = type { i64, [8 x i8] }
%"class.std::allocator" = type { i8 }
%"class.std::shared_ptr" = type { %"class.std::__shared_ptr" }
%"class.std::__shared_ptr" = type { ptr, %"class.std::__shared_count" }
%"class.std::__shared_count" = type { ptr }
%"class.open_spiel::coordinated_mp::PenniesState" = type { %"class.open_spiel::State.base", i32, i32, i32 }
%"class.open_spiel::State.base" = type <{ ptr, %"class.std::shared_ptr", i32, i32, %"class.std::vector", i32 }>
%"class.std::vector" = type { %"struct.std::_Vector_base" }
%"struct.std::_Vector_base" = type { %"struct.std::_Vector_base<open_spiel::State::PlayerAction, std::allocator<open_spiel::State::PlayerAction>>::_Vector_impl" }
%"struct.std::_Vector_base<open_spiel::State::PlayerAction, std::allocator<open_spiel::State::PlayerAction>>::_Vector_impl" = type { %"struct.std::_Vector_base<open_spiel::State::PlayerAction, std::allocator<open_spiel::State::PlayerAction>>::_Vector_impl_data" }
%"struct.std::_Vector_base<open_spiel::State::PlayerAction, std::allocator<open_spiel::State::PlayerAction>>::_Vector_impl_data" = type { ptr, ptr, ptr }

@.str.18 = private unnamed_addr constant [17 x i8] c"Should not match\00", align 1

; Function Attrs: mustprogress uwtable
define void @_ZN10open_spiel14coordinated_mp12PenniesState13DoApplyActionEl(ptr noundef nonnull align 8 dereferenceable(72) %0, i64 noundef %1) unnamed_addr #4 align 2 personality ptr @__gxx_personality_v0 {
  %3 = alloca ptr, align 8
  %4 = alloca i64, align 8
  %5 = alloca %"class.std::__cxx11::basic_string", align 8
  %6 = alloca %"class.std::allocator", align 1
  %7 = alloca ptr, align 8
  %8 = alloca i32, align 4
  store ptr %0, ptr %3, align 8
  store i64 %1, ptr %4, align 8
  %9 = load ptr, ptr %3, align 8
  %10 = load ptr, ptr %9, align 8
  %11 = getelementptr inbounds ptr, ptr %10, i64 2
  %12 = load ptr, ptr %11, align 8
  %13 = call noundef i32 %12(ptr noundef nonnull align 8 dereferenceable(72) %9)
  switch i32 %13, label %26 [
    i32 0, label %14
    i32 1, label %18
    i32 -1, label %22
  ]

14:                                               ; preds = %2
  %15 = load i64, ptr %4, align 8
  %16 = trunc i64 %15 to i32
  %17 = getelementptr inbounds nuw %"class.open_spiel::coordinated_mp::PenniesState", ptr %9, i32 0, i32 1
  store i32 %16, ptr %17, align 4
  br label %38

18:                                               ; preds = %2
  %19 = load i64, ptr %4, align 8
  %20 = trunc i64 %19 to i32
  %21 = getelementptr inbounds nuw %"class.open_spiel::coordinated_mp::PenniesState", ptr %9, i32 0, i32 2
  store i32 %20, ptr %21, align 8
  br label %38

22:                                               ; preds = %2
  %23 = load i64, ptr %4, align 8
  %24 = trunc i64 %23 to i32
  %25 = getelementptr inbounds nuw %"class.open_spiel::coordinated_mp::PenniesState", ptr %9, i32 0, i32 3
  store i32 %24, ptr %25, align 4
  br label %38

26:                                               ; preds = %2
  call void @_ZNSaIcEC1Ev(ptr noundef nonnull align 1 dereferenceable(1) %6) #3
  invoke void @_ZNSt7__cxx1112basic_stringIcSt11char_traitsIcESaIcEEC2IS3_EEPKcRKS3_(ptr noundef nonnull align 8 dereferenceable(32) %5, ptr noundef @.str.18, ptr noundef nonnull align 1 dereferenceable(1) %6)
          to label %27 unwind label %29

27:                                               ; preds = %26
  invoke void @_ZN10open_spiel15SpielFatalErrorERKNSt7__cxx1112basic_stringIcSt11char_traitsIcESaIcEEE(ptr noundef nonnull align 8 dereferenceable(32) %5) #14
          to label %28 unwind label %33

28:                                               ; preds = %27
  unreachable

29:                                               ; preds = %26
  %30 = landingpad { ptr, i32 }
          cleanup
  %31 = extractvalue { ptr, i32 } %30, 0
  store ptr %31, ptr %7, align 8
  %32 = extractvalue { ptr, i32 } %30, 1
  store i32 %32, ptr %8, align 4
  br label %37

33:                                               ; preds = %27
  %34 = landingpad { ptr, i32 }
          cleanup
  %35 = extractvalue { ptr, i32 } %34, 0
  store ptr %35, ptr %7, align 8
  %36 = extractvalue { ptr, i32 } %34, 1
  store i32 %36, ptr %8, align 4
  call void @_ZNSt7__cxx1112basic_stringIcSt11char_traitsIcESaIcEED1Ev(ptr noundef nonnull align 8 dereferenceable(32) %5) #3
  br label %37

37:                                               ; preds = %33, %29
  call void @_ZNSaIcED1Ev(ptr noundef nonnull align 1 dereferenceable(1) %6) #3
  br label %39

38:                                               ; preds = %22, %18, %14
  ret void

39:                                               ; preds = %37
  %40 = load ptr, ptr %7, align 8
  %41 = load i32, ptr %8, align 4
  %42 = insertvalue { ptr, i32 } poison, ptr %40, 0
  %43 = insertvalue { ptr, i32 } %42, i32 %41, 1
  resume { ptr, i32 } %43
}