; Function Attrs: mustprogress uwtable
define void @_ZN10open_spiel14coordinated_mp12PenniesState13DoApplyActionEl(ptr noundef nonnull align 8 dereferenceable(72) %0, i64 noundef %1) unnamed_addr #3 align 2 personality ptr @__gxx_personality_v0 {
  %3 = alloca %"class.std::__cxx11::basic_string", align 8
  %4 = alloca %"class.std::allocator", align 1
  %5 = load ptr, ptr %0, align 8
  %6 = getelementptr inbounds nuw i8, ptr %5, i64 16
  %7 = load ptr, ptr %6, align 8
  %8 = tail call noundef i32 %7(ptr noundef nonnull align 8 dereferenceable(72) %0)
  switch i32 %8, label %18 [
    i32 0, label %9
    i32 1, label %12
    i32 -1, label %15
  ]

9:                                                ; preds = %2
  %10 = trunc i64 %1 to i32
  %11 = getelementptr inbounds nuw i8, ptr %0, i64 60
  store i32 %10, ptr %11, align 4
  br label %26

12:                                               ; preds = %2
  %13 = trunc i64 %1 to i32
  %14 = getelementptr inbounds nuw i8, ptr %0, i64 64
  store i32 %13, ptr %14, align 8
  br label %26

15:                                               ; preds = %2
  %16 = trunc i64 %1 to i32
  %17 = getelementptr inbounds nuw i8, ptr %0, i64 68
  store i32 %16, ptr %17, align 4
  br label %26

18:                                               ; preds = %2
  call void @_ZNSaIcEC1Ev(ptr noundef nonnull align 1 dereferenceable(1) %4) #24
  invoke void @_ZNSt7__cxx1112basic_stringIcSt11char_traitsIcESaIcEEC2IS3_EEPKcRKS3_(ptr noundef nonnull align 8 dereferenceable(32) %3, ptr noundef nonnull @.str.18, ptr noundef nonnull align 1 dereferenceable(1) %4)
          to label %19 unwind label %21

19:                                               ; preds = %18
  invoke void @_ZN10open_spiel15SpielFatalErrorERKNSt7__cxx1112basic_stringIcSt11char_traitsIcESaIcEEE(ptr noundef nonnull align 8 dereferenceable(32) %3) #23
          to label %20 unwind label %23

20:                                               ; preds = %19
  unreachable

21:                                               ; preds = %18
  %22 = landingpad { ptr, i32 }
          cleanup
  br label %25

23:                                               ; preds = %19
  %24 = landingpad { ptr, i32 }
          cleanup
  call void @_ZNSt7__cxx1112basic_stringIcSt11char_traitsIcESaIcEED1Ev(ptr noundef nonnull align 8 dereferenceable(32) %3) #24
  br label %25

25:                                               ; preds = %23, %21
  %.pn = phi { ptr, i32 } [ %24, %23 ], [ %22, %21 ]
  call void @_ZNSaIcED1Ev(ptr noundef nonnull align 1 dereferenceable(1) %4) #24
  resume { ptr, i32 } %.pn

26:                                               ; preds = %15, %12, %9
  ret void
}